target datalayout = "e-m:e-p270:32:32-p271:32:32-p272:64:64-i64:64-i128:128-f80:128-n8:16:32:64-S128"
target triple = "x86_64-pc-linux-gnu"

%"class.std::__cxx11::basic_string" = type { %"struct.std::__cxx11::basic_string<char>::_Alloc_hider", i64, %union.anon }
%"struct.std::__cxx11::basic_string<char>::_Alloc_hider" = type { ptr }
%union.anon = type { i64, [8 x i8] }
%struct.__va_list_tag = type { i32, i32, ptr, ptr }

@_ZN5Yosys19log_cmd_error_throwE = global i8 0, align 1
@_ZN5Yosys14log_last_errorB5cxx11E = global %"class.std::__cxx11::basic_string" zeroinitializer, align 8
@.str.37 = private unnamed_addr constant [10 x i8] c"ERROR: %s\00", align 1
@_ZTIN5Yosys23log_cmd_error_exceptionE = linkonce_odr constant { ptr, ptr } { ptr getelementptr inbounds (ptr, ptr @_ZTVN10__cxxabiv117__class_type_infoE, i64 2), ptr @_ZTSN5Yosys23log_cmd_error_exceptionE }, comdat, align 8

; Function Attrs: mustprogress noreturn uwtable
define void @_ZN5Yosys13log_cmd_errorEPKcz(ptr noundef %0, ...) #9 {
  %2 = alloca ptr, align 8
  %3 = alloca [1 x %struct.__va_list_tag], align 16
  %4 = alloca %"class.std::__cxx11::basic_string", align 8
  store ptr %0, ptr %2, align 8
  %5 = getelementptr inbounds [1 x %struct.__va_list_tag], ptr %3, i64 0, i64 0
  call void @llvm.va_start(ptr %5)
  %6 = load i8, ptr @_ZN5Yosys19log_cmd_error_throwE, align 1
  %7 = trunc i8 %6 to i1
  br i1 %7, label %8, label %14

8:                                                ; preds = %1
  %9 = load ptr, ptr %2, align 8
  %10 = getelementptr inbounds [1 x %struct.__va_list_tag], ptr %3, i64 0, i64 0
  call void @_ZN5Yosys8vstringfB5cxx11EPKcP13__va_list_tag(ptr dead_on_unwind writable sret(%"class.std::__cxx11::basic_string") align 8 %4, ptr noundef %9, ptr noundef %10)
  %11 = call noundef nonnull align 8 dereferenceable(32) ptr @_ZNSt7__cxx1112basic_stringIcSt11char_traitsIcESaIcEEaSEOS4_(ptr noundef nonnull align 8 dereferenceable(32) @_ZN5Yosys14log_last_errorB5cxx11E, ptr noundef nonnull align 8 dereferenceable(32) %4) #3
  call void @_ZNSt7__cxx1112basic_stringIcSt11char_traitsIcESaIcEED1Ev(ptr noundef nonnull align 8 dereferenceable(32) %4) #3
  %12 = call noundef ptr @_ZNKSt7__cxx1112basic_stringIcSt11char_traitsIcESaIcEE5c_strEv(ptr noundef nonnull align 8 dereferenceable(32) @_ZN5Yosys14log_last_errorB5cxx11E) #3
  call void (ptr, ...) @_ZN5Yosys3logEPKcz(ptr noundef @.str.37, ptr noundef %12)
  call void @_ZN5Yosys9log_flushEv()
  %13 = call ptr @__cxa_allocate_exception(i64 1) #3
  call void @__cxa_throw(ptr %13, ptr @_ZTIN5Yosys23log_cmd_error_exceptionE, ptr null) #21
  unreachable

14:                                               ; preds = %1
  %15 = load ptr, ptr %2, align 8
  %16 = getelementptr inbounds [1 x %struct.__va_list_tag], ptr %3, i64 0, i64 0
  call void @_ZN5Yosys10logv_errorEPKcP13__va_list_tag(ptr noundef %15, ptr noundef %16) #21
  unreachable
}