; Function Attrs: mustprogress noreturn uwtable
define void @_ZN5Yosys13log_cmd_errorEPKcz(ptr noundef %0, ...) local_unnamed_addr #9 {
  %2 = alloca [1 x %struct.__va_list_tag], align 16
  %3 = alloca %"class.std::__cxx11::basic_string", align 8
  call void @llvm.va_start(ptr nonnull %2)
  %4 = load i8, ptr @_ZN5Yosys19log_cmd_error_throwE, align 1
  %5 = and i8 %4, 1
  %.not = icmp eq i8 %5, 0
  br i1 %.not, label %10, label %6

6:                                                ; preds = %1
  call void @_ZN5Yosys8vstringfB5cxx11EPKcP13__va_list_tag(ptr dead_on_unwind nonnull writable sret(%"class.std::__cxx11::basic_string") align 8 %3, ptr noundef %0, ptr noundef nonnull %2)
  %7 = call noundef nonnull align 8 dereferenceable(32) ptr @_ZNSt7__cxx1112basic_stringIcSt11char_traitsIcESaIcEEaSEOS4_(ptr noundef nonnull align 8 dereferenceable(32) @_ZN5Yosys14log_last_errorB5cxx11E, ptr noundef nonnull align 8 dereferenceable(32) %3) #27
  call void @_ZNSt7__cxx1112basic_stringIcSt11char_traitsIcESaIcEED1Ev(ptr noundef nonnull align 8 dereferenceable(32) %3) #27
  %8 = call noundef ptr @_ZNKSt7__cxx1112basic_stringIcSt11char_traitsIcESaIcEE5c_strEv(ptr noundef nonnull align 8 dereferenceable(32) @_ZN5Yosys14log_last_errorB5cxx11E) #27
  call void (ptr, ...) @_ZN5Yosys3logEPKcz(ptr noundef nonnull @.str.37, ptr noundef %8)
  call void @_ZN5Yosys9log_flushEv()
  %9 = call ptr @__cxa_allocate_exception(i64 1) #27
  call void @__cxa_throw(ptr %9, ptr nonnull @_ZTIN5Yosys23log_cmd_error_exceptionE, ptr null) #30
  unreachable

10:                                               ; preds = %1
  call void @_ZN5Yosys10logv_errorEPKcP13__va_list_tag(ptr noundef %0, ptr noundef nonnull %2) #30
  unreachable
}